target datalayout = "e-m:e-p270:32:32-p271:32:32-p272:64:64-i64:64-i128:128-f80:128-n8:16:32:64-S128"
target triple = "x86_64-unknown-linux-gnu"

%class.qe_lite = type { ptr }
%class.params_ref = type { ptr }
%"class.(anonymous namespace)::qe_lite_simplifier" = type { %class.dependent_expr_simplifier, %class.params_ref, %class.qe_lite }
%class.dependent_expr_simplifier = type { ptr, ptr, ptr, ptr }

@_ZN7qe_liteD1Ev = hidden unnamed_addr alias void (ptr), ptr @_ZN7qe_liteD2Ev

; Function Attrs: mustprogress nounwind uwtable
define linkonce_odr hidden void @_ZN25dependent_expr_simplifierD2Ev(ptr noundef nonnull align 8 dereferenceable(32) %this) unnamed_addr #5 comdat align 2 {
entry:
  %this.addr = alloca ptr, align 8
  store ptr %this, ptr %this.addr, align 8
  ret void
}

; Function Attrs: mustprogress nounwind uwtable
define internal void @_ZN12_GLOBAL__N_118qe_lite_simplifierD2Ev(ptr noundef nonnull align 8 dereferenceable(48) %this) unnamed_addr #5 align 2 {
entry:
  %this.addr = alloca ptr, align 8
  store ptr %this, ptr %this.addr, align 8
  %this1 = load ptr, ptr %this.addr, align 8
  store ptr getelementptr inbounds ({ [13 x ptr] }, ptr @_ZTVN12_GLOBAL__N_118qe_lite_simplifierE, i32 0, i32 0, i32 2), ptr %this1, align 8
  %m_qe = getelementptr inbounds %"class.(anonymous namespace)::qe_lite_simplifier", ptr %this1, i32 0, i32 2
  call void @_ZN7qe_liteD1Ev(ptr noundef nonnull align 8 dereferenceable(8) %m_qe) #3
  %m_params = getelementptr inbounds %"class.(anonymous namespace)::qe_lite_simplifier", ptr %this1, i32 0, i32 1
  call void @_ZN10params_refD1Ev(ptr noundef nonnull align 8 dereferenceable(8) %m_params) #3
  call void @_ZN25dependent_expr_simplifierD2Ev(ptr noundef nonnull align 8 dereferenceable(32) %this1) #3
  ret void
}

; Function Attrs: mustprogress nounwind uwtable
define internal void @_ZN12_GLOBAL__N_118qe_lite_simplifierD0Ev(ptr noundef nonnull align 8 dereferenceable(48) %this) unnamed_addr #5 align 2 {
entry:
  %this.addr = alloca ptr, align 8
  store ptr %this, ptr %this.addr, align 8
  %this1 = load ptr, ptr %this.addr, align 8
  call void @_ZN12_GLOBAL__N_118qe_lite_simplifierD2Ev(ptr noundef nonnull align 8 dereferenceable(48) %this1) #3
  call void @_ZdlPv(ptr noundef %this1) #18
  ret void
}