; Function Attrs: mustprogress nounwind uwtable
define internal void @_ZN12_GLOBAL__N_118qe_lite_simplifierD0Ev(ptr noundef nonnull align 8 dereferenceable(48) %this) unnamed_addr #4 align 2 personality ptr @__gxx_personality_v0 {
entry:
  store ptr getelementptr inbounds ({ [13 x ptr] }, ptr @_ZTVN12_GLOBAL__N_118qe_lite_simplifierE, i64 0, i32 0, i64 2), ptr %this, align 8
  %m_qe.i = getelementptr inbounds i8, ptr %this, i64 40
  %0 = load ptr, ptr %m_qe.i, align 8
  %cmp.i.i.i = icmp eq ptr %0, null
  br i1 %cmp.i.i.i, label %_ZN12_GLOBAL__N_118qe_lite_simplifierD2Ev.exit, label %if.end.i.i.i

if.end.i.i.i:                                     ; preds = %entry
  tail call void @_ZN7qe_lite4implD2Ev(ptr noundef nonnull align 8 dereferenceable(2625) %0) #23
  invoke void @_ZN6memory10deallocateEPv(ptr noundef nonnull %0)
          to label %_ZN12_GLOBAL__N_118qe_lite_simplifierD2Ev.exit unwind label %terminate.lpad.i.i

terminate.lpad.i.i:                               ; preds = %if.end.i.i.i
  %1 = landingpad { ptr, i32 }
          catch ptr null
  %2 = extractvalue { ptr, i32 } %1, 0
  tail call void @__clang_call_terminate(ptr %2) #22
  unreachable

_ZN12_GLOBAL__N_118qe_lite_simplifierD2Ev.exit:   ; preds = %entry, %if.end.i.i.i
  %m_params.i = getelementptr inbounds i8, ptr %this, i64 32
  tail call void @_ZN10params_refD1Ev(ptr noundef nonnull align 8 dereferenceable(8) %m_params.i) #23
  tail call void @_ZdlPv(ptr noundef nonnull %this) #24
  ret void
}